target datalayout = "e-m:e-p270:32:32-p271:32:32-p272:64:64-i64:64-i128:128-f80:128-n8:16:32:64-S128"
target triple = "x86_64-pc-linux-gnu"

%class.PLABStats = type { ptr, ptr, i64, i64, i64, i64 }
%class.G1EvacStats = type { %class.PLABStats, i64, i64, %class.AdaptiveWeightedAverage, i64, i32, i64, i64, i64, i64, i64 }
%class.AdaptiveWeightedAverage = type { float, i32, i32, i8, float }

@_ZTV11G1EvacStats = linkonce_odr hidden unnamed_addr constant { [5 x ptr] } { [5 x ptr] [ptr null, ptr null, ptr @_ZN11G1EvacStats5resetEv, ptr @_ZN11G1EvacStatsD2Ev, ptr @_ZN11G1EvacStatsD0Ev] }, comdat, align 8
@ParallelGCThreads = external global i32, align 4
@_ZTV9PLABStats = linkonce_odr hidden unnamed_addr constant { [5 x ptr] } { [5 x ptr] [ptr null, ptr null, ptr @_ZN9PLABStats5resetEv, ptr @_ZN9PLABStatsD2Ev, ptr @_ZN9PLABStatsD0Ev] }, comdat, align 8

; Function Attrs: mustprogress nounwind uwtable
define linkonce_odr hidden void @_ZN23AdaptiveWeightedAverageC2Ejf(ptr noundef nonnull align 4 dereferenceable(20) %0, i32 noundef %1, float noundef %2) unnamed_addr #1 comdat align 2 {
  %4 = alloca ptr, align 8
  %5 = alloca i32, align 4
  %6 = alloca float, align 4
  store ptr %0, ptr %4, align 8
  store i32 %1, ptr %5, align 4
  store float %2, ptr %6, align 4
  %7 = load ptr, ptr %4, align 8
  %8 = getelementptr inbounds %class.AdaptiveWeightedAverage, ptr %7, i32 0, i32 0
  %9 = load float, ptr %6, align 4
  store float %9, ptr %8, align 4
  %10 = getelementptr inbounds %class.AdaptiveWeightedAverage, ptr %7, i32 0, i32 1
  store i32 0, ptr %10, align 4
  %11 = getelementptr inbounds %class.AdaptiveWeightedAverage, ptr %7, i32 0, i32 2
  %12 = load i32, ptr %5, align 4
  store i32 %12, ptr %11, align 4
  %13 = getelementptr inbounds %class.AdaptiveWeightedAverage, ptr %7, i32 0, i32 3
  store i8 0, ptr %13, align 4
  %14 = getelementptr inbounds %class.AdaptiveWeightedAverage, ptr %7, i32 0, i32 4
  store float 0.000000e+00, ptr %14, align 4
  ret void
}

; Function Attrs: mustprogress nounwind uwtable
define linkonce_odr hidden void @_ZN9PLABStatsC2EPKc(ptr noundef nonnull align 8 dereferenceable(48) %0, ptr noundef %1) unnamed_addr #1 comdat align 2 {
  %3 = alloca ptr, align 8
  %4 = alloca ptr, align 8
  store ptr %0, ptr %3, align 8
  store ptr %1, ptr %4, align 8
  %5 = load ptr, ptr %3, align 8
  store ptr getelementptr inbounds inrange(-16, 24) ({ [5 x ptr] }, ptr @_ZTV9PLABStats, i32 0, i32 0, i32 2), ptr %5, align 8
  %6 = getelementptr inbounds %class.PLABStats, ptr %5, i32 0, i32 1
  %7 = load ptr, ptr %4, align 8
  store ptr %7, ptr %6, align 8
  %8 = getelementptr inbounds %class.PLABStats, ptr %5, i32 0, i32 2
  store i64 0, ptr %8, align 8
  %9 = getelementptr inbounds %class.PLABStats, ptr %5, i32 0, i32 3
  store i64 0, ptr %9, align 8
  %10 = getelementptr inbounds %class.PLABStats, ptr %5, i32 0, i32 4
  store i64 0, ptr %10, align 8
  %11 = getelementptr inbounds %class.PLABStats, ptr %5, i32 0, i32 5
  store i64 0, ptr %11, align 8
  ret void
}

; Function Attrs: mustprogress nounwind uwtable
define hidden void @_ZN11G1EvacStatsC2EPKcmj(ptr noundef nonnull align 8 dereferenceable(144) %0, ptr noundef %1, i64 noundef %2, i32 noundef %3) unnamed_addr #1 align 2 {
  %5 = alloca ptr, align 8
  %6 = alloca ptr, align 8
  %7 = alloca i64, align 8
  %8 = alloca i32, align 4
  store ptr %0, ptr %5, align 8
  store ptr %1, ptr %6, align 8
  store i64 %2, ptr %7, align 8
  store i32 %3, ptr %8, align 4
  %9 = load ptr, ptr %5, align 8
  %10 = load ptr, ptr %6, align 8
  call void @_ZN9PLABStatsC2EPKc(ptr noundef nonnull align 8 dereferenceable(48) %9, ptr noundef %10)
  store ptr getelementptr inbounds inrange(-16, 24) ({ [5 x ptr] }, ptr @_ZTV11G1EvacStats, i32 0, i32 0, i32 2), ptr %9, align 8
  %11 = getelementptr inbounds %class.G1EvacStats, ptr %9, i32 0, i32 1
  %12 = load i64, ptr %7, align 8
  store i64 %12, ptr %11, align 8
  %13 = getelementptr inbounds %class.G1EvacStats, ptr %9, i32 0, i32 2
  %14 = load i64, ptr %7, align 8
  %15 = load i32, ptr @ParallelGCThreads, align 4
  %16 = zext i32 %15 to i64
  %17 = mul i64 %14, %16
  store i64 %17, ptr %13, align 8
  %18 = getelementptr inbounds %class.G1EvacStats, ptr %9, i32 0, i32 3
  %19 = load i32, ptr %8, align 4
  call void @_ZN23AdaptiveWeightedAverageC2Ejf(ptr noundef nonnull align 4 dereferenceable(20) %18, i32 noundef %19, float noundef 0.000000e+00)
  %20 = getelementptr inbounds %class.G1EvacStats, ptr %9, i32 0, i32 4
  store i64 0, ptr %20, align 8
  %21 = getelementptr inbounds %class.G1EvacStats, ptr %9, i32 0, i32 5
  store i32 0, ptr %21, align 8
  %22 = getelementptr inbounds %class.G1EvacStats, ptr %9, i32 0, i32 6
  store i64 0, ptr %22, align 8
  %23 = getelementptr inbounds %class.G1EvacStats, ptr %9, i32 0, i32 7
  store i64 0, ptr %23, align 8
  %24 = getelementptr inbounds %class.G1EvacStats, ptr %9, i32 0, i32 8
  store i64 0, ptr %24, align 8
  %25 = getelementptr inbounds %class.G1EvacStats, ptr %9, i32 0, i32 9
  store i64 0, ptr %25, align 8
  %26 = getelementptr inbounds %class.G1EvacStats, ptr %9, i32 0, i32 10
  store i64 0, ptr %26, align 8
  ret void
}