; Function Attrs: mustprogress nofree norecurse nosync nounwind willreturn memory(read, argmem: write, inaccessiblemem: none) uwtable
define hidden void @_ZN11G1EvacStatsC2EPKcmj(ptr nocapture noundef nonnull writeonly align 8 dereferenceable(144) %0, ptr noundef %1, i64 noundef %2, i32 noundef %3) unnamed_addr #2 align 2 {
  %5 = getelementptr inbounds i8, ptr %0, i64 8
  store ptr %1, ptr %5, align 8
  %6 = getelementptr inbounds i8, ptr %0, i64 16
  tail call void @llvm.memset.p0.i64(ptr noundef nonnull align 8 dereferenceable(32) %6, i8 0, i64 32, i1 false)
  store ptr getelementptr inbounds inrange(-16, 24) (i8, ptr @_ZTV11G1EvacStats, i64 16), ptr %0, align 8
  %7 = getelementptr inbounds i8, ptr %0, i64 48
  store i64 %2, ptr %7, align 8
  %8 = getelementptr inbounds i8, ptr %0, i64 56
  %9 = load i32, ptr @ParallelGCThreads, align 4
  %10 = zext i32 %9 to i64
  %11 = mul i64 %10, %2
  store i64 %11, ptr %8, align 8
  %12 = getelementptr inbounds i8, ptr %0, i64 64
  store float 0.000000e+00, ptr %12, align 8
  %13 = getelementptr inbounds i8, ptr %0, i64 68
  store i32 0, ptr %13, align 4
  %14 = getelementptr inbounds i8, ptr %0, i64 72
  store i32 %3, ptr %14, align 8
  %15 = getelementptr inbounds i8, ptr %0, i64 76
  store i8 0, ptr %15, align 4
  %16 = getelementptr inbounds i8, ptr %0, i64 80
  store float 0.000000e+00, ptr %16, align 8
  %17 = getelementptr inbounds i8, ptr %0, i64 88
  store i64 0, ptr %17, align 8
  %18 = getelementptr inbounds i8, ptr %0, i64 96
  store i32 0, ptr %18, align 8
  %19 = getelementptr inbounds i8, ptr %0, i64 104
  tail call void @llvm.memset.p0.i64(ptr noundef nonnull align 8 dereferenceable(40) %19, i8 0, i64 40, i1 false)
  ret void
}